target datalayout = "e-m:e-p270:32:32-p271:32:32-p272:64:64-i64:64-i128:128-f80:128-n8:16:32:64-S128"
target triple = "x86_64-pc-linux-gnu"

; Function Attrs: inlinehint nounwind uwtable
define internal i32 @If_LogCreateMux(ptr noundef %0, i32 noundef %1, i32 noundef %2, i32 noundef %3, i32 noundef %4) #1 {
  %6 = alloca ptr, align 8
  %7 = alloca i32, align 4
  %8 = alloca i32, align 4
  %9 = alloca i32, align 4
  %10 = alloca i32, align 4
  %11 = alloca i32, align 4
  %12 = alloca i32, align 4
  %13 = alloca i32, align 4
  store ptr %0, ptr %6, align 8, !tbaa !47
  store i32 %1, ptr %7, align 4, !tbaa !27
  store i32 %2, ptr %8, align 4, !tbaa !27
  store i32 %3, ptr %9, align 4, !tbaa !27
  store i32 %4, ptr %10, align 4, !tbaa !27
  call void @llvm.lifetime.start.p0(i64 4, ptr %11) #15
  %14 = load ptr, ptr %6, align 8, !tbaa !47
  %15 = load i32, ptr %7, align 4, !tbaa !27
  %16 = load i32, ptr %8, align 4, !tbaa !27
  %17 = load i32, ptr %10, align 4, !tbaa !27
  %18 = call i32 @If_LogCreateAnd(ptr noundef %14, i32 noundef %15, i32 noundef %16, i32 noundef %17)
  store i32 %18, ptr %11, align 4, !tbaa !27
  call void @llvm.lifetime.start.p0(i64 4, ptr %12) #15
  %19 = load ptr, ptr %6, align 8, !tbaa !47
  %20 = load i32, ptr %7, align 4, !tbaa !27
  %21 = call i32 @Abc_LitNot(i32 noundef %20)
  %22 = load i32, ptr %9, align 4, !tbaa !27
  %23 = load i32, ptr %10, align 4, !tbaa !27
  %24 = call i32 @If_LogCreateAnd(ptr noundef %19, i32 noundef %21, i32 noundef %22, i32 noundef %23)
  store i32 %24, ptr %12, align 4, !tbaa !27
  call void @llvm.lifetime.start.p0(i64 4, ptr %13) #15
  %25 = load ptr, ptr %6, align 8, !tbaa !47
  %26 = load i32, ptr %11, align 4, !tbaa !27
  %27 = call i32 @Abc_LitNot(i32 noundef %26)
  %28 = load i32, ptr %12, align 4, !tbaa !27
  %29 = call i32 @Abc_LitNot(i32 noundef %28)
  %30 = load i32, ptr %10, align 4, !tbaa !27
  %31 = call i32 @If_LogCreateAnd(ptr noundef %25, i32 noundef %27, i32 noundef %29, i32 noundef %30)
  store i32 %31, ptr %13, align 4, !tbaa !27
  %32 = load i32, ptr %13, align 4, !tbaa !27
  %33 = call i32 @Abc_LitNot(i32 noundef %32)
  call void @llvm.lifetime.end.p0(i64 4, ptr %13) #15
  call void @llvm.lifetime.end.p0(i64 4, ptr %12) #15
  call void @llvm.lifetime.end.p0(i64 4, ptr %11) #15
  ret i32 %33
}

; Function Attrs: inlinehint nounwind uwtable
define internal i32 @Abc_LitNot(i32 noundef %0) #1 {
  %2 = alloca i32, align 4
  store i32 %0, ptr %2, align 4, !tbaa !27
  %3 = load i32, ptr %2, align 4, !tbaa !27
  %4 = xor i32 %3, 1
  ret i32 %4
}

; Function Attrs: inlinehint nounwind uwtable
define internal i32 @If_LogCreateXor(ptr noundef %0, i32 noundef %1, i32 noundef %2, i32 noundef %3) #1 {
  %5 = alloca ptr, align 8
  %6 = alloca i32, align 4
  %7 = alloca i32, align 4
  %8 = alloca i32, align 4
  store ptr %0, ptr %5, align 8, !tbaa !47
  store i32 %1, ptr %6, align 4, !tbaa !27
  store i32 %2, ptr %7, align 4, !tbaa !27
  store i32 %3, ptr %8, align 4, !tbaa !27
  %9 = load ptr, ptr %5, align 8, !tbaa !47
  %10 = load i32, ptr %6, align 4, !tbaa !27
  %11 = load i32, ptr %7, align 4, !tbaa !27
  %12 = call i32 @Abc_LitNot(i32 noundef %11)
  %13 = load i32, ptr %7, align 4, !tbaa !27
  %14 = load i32, ptr %8, align 4, !tbaa !27
  %15 = call i32 @If_LogCreateMux(ptr noundef %9, i32 noundef %10, i32 noundef %12, i32 noundef %13, i32 noundef %14)
  ret i32 %15
}

; Function Attrs: inlinehint nounwind uwtable
define internal i32 @If_LogCreateAndXor(ptr noundef %0, i32 noundef %1, i32 noundef %2, i32 noundef %3, i32 noundef %4) #1 {
  %6 = alloca ptr, align 8
  %7 = alloca i32, align 4
  %8 = alloca i32, align 4
  %9 = alloca i32, align 4
  %10 = alloca i32, align 4
  store ptr %0, ptr %6, align 8, !tbaa !47
  store i32 %1, ptr %7, align 4, !tbaa !27
  store i32 %2, ptr %8, align 4, !tbaa !27
  store i32 %3, ptr %9, align 4, !tbaa !27
  store i32 %4, ptr %10, align 4, !tbaa !27
  %11 = load i32, ptr %10, align 4, !tbaa !27
  %12 = icmp ne i32 %11, 0
  br i1 %12, label %13, label %19

13:                                               ; preds = %5
  %14 = load ptr, ptr %6, align 8, !tbaa !47
  %15 = load i32, ptr %7, align 4, !tbaa !27
  %16 = load i32, ptr %8, align 4, !tbaa !27
  %17 = load i32, ptr %9, align 4, !tbaa !27
  %18 = call i32 @If_LogCreateXor(ptr noundef %14, i32 noundef %15, i32 noundef %16, i32 noundef %17)
  br label %25

19:                                               ; preds = %5
  %20 = load ptr, ptr %6, align 8, !tbaa !47
  %21 = load i32, ptr %7, align 4, !tbaa !27
  %22 = load i32, ptr %8, align 4, !tbaa !27
  %23 = load i32, ptr %9, align 4, !tbaa !27
  %24 = call i32 @If_LogCreateAnd(ptr noundef %20, i32 noundef %21, i32 noundef %22, i32 noundef %23)
  br label %25

25:                                               ; preds = %19, %13
  %26 = phi i32 [ %18, %13 ], [ %24, %19 ]
  ret i32 %26
}

; Function Attrs: inlinehint nounwind uwtable
define internal i32 @If_LogCounterAddAig(ptr noundef %0, ptr noundef %1, ptr noundef %2, i32 noundef %3, i32 noundef %4, ptr noundef %5, i32 noundef %6, i32 noundef %7, i32 noundef %8) #1 {
  %10 = alloca ptr, align 8
  %11 = alloca ptr, align 8
  %12 = alloca ptr, align 8
  %13 = alloca i32, align 4
  %14 = alloca i32, align 4
  %15 = alloca ptr, align 8
  %16 = alloca i32, align 4
  %17 = alloca i32, align 4
  %18 = alloca i32, align 4
  %19 = alloca i32, align 4
  %20 = alloca i32, align 4
  %21 = alloca i32, align 4
  %22 = alloca i32, align 4
  %23 = alloca i32, align 4
  store ptr %0, ptr %10, align 8, !tbaa !60
  store ptr %1, ptr %11, align 8, !tbaa !60
  store ptr %2, ptr %12, align 8, !tbaa !60
  store i32 %3, ptr %13, align 4, !tbaa !27
  store i32 %4, ptr %14, align 4, !tbaa !27
  store ptr %5, ptr %15, align 8, !tbaa !47
  store i32 %6, ptr %16, align 4, !tbaa !27
  store i32 %7, ptr %17, align 4, !tbaa !27
  store i32 %8, ptr %18, align 4, !tbaa !27
  call void @llvm.lifetime.start.p0(i64 4, ptr %19) #15
  %24 = load ptr, ptr %11, align 8, !tbaa !60
  %25 = load i32, ptr %24, align 4, !tbaa !27
  store i32 %25, ptr %19, align 4, !tbaa !27
  %26 = load ptr, ptr %15, align 8, !tbaa !47
  %27 = icmp ne ptr %26, null
  br i1 %27, label %28, label %34

28:                                               ; preds = %9
  %29 = load i32, ptr %14, align 4, !tbaa !27
  %30 = load ptr, ptr %12, align 8, !tbaa !60
  %31 = load i32, ptr %19, align 4, !tbaa !27
  %32 = sext i32 %31 to i64
  %33 = getelementptr inbounds i32, ptr %30, i64 %32
  store i32 %29, ptr %33, align 4, !tbaa !27
  br label %34

34:                                               ; preds = %28, %9
  %35 = load i32, ptr %13, align 4, !tbaa !27
  %36 = load ptr, ptr %10, align 8, !tbaa !60
  %37 = load i32, ptr %19, align 4, !tbaa !27
  %38 = add nsw i32 %37, 1
  store i32 %38, ptr %19, align 4, !tbaa !27
  %39 = sext i32 %37 to i64
  %40 = getelementptr inbounds i32, ptr %36, i64 %39
  store i32 %35, ptr %40, align 4, !tbaa !27
  %41 = load i32, ptr %19, align 4, !tbaa !27
  %42 = icmp sgt i32 %41, 1
  br i1 %42, label %43, label %197

43:                                               ; preds = %34
  call void @llvm.lifetime.start.p0(i64 4, ptr %20) #15
  call void @llvm.lifetime.start.p0(i64 4, ptr %21) #15
  %44 = load i32, ptr %19, align 4, !tbaa !27
  %45 = sub nsw i32 %44, 1
  store i32 %45, ptr %21, align 4, !tbaa !27
  br label %46

46:                                               ; preds = %193, %43
  %47 = load i32, ptr %21, align 4, !tbaa !27
  %48 = icmp sgt i32 %47, 0
  br i1 %48, label %49, label %196

49:                                               ; preds = %46
  %50 = load ptr, ptr %10, align 8, !tbaa !60
  %51 = load i32, ptr %21, align 4, !tbaa !27
  %52 = sext i32 %51 to i64
  %53 = getelementptr inbounds i32, ptr %50, i64 %52
  %54 = load i32, ptr %53, align 4, !tbaa !27
  %55 = load ptr, ptr %10, align 8, !tbaa !60
  %56 = load i32, ptr %21, align 4, !tbaa !27
  %57 = sub nsw i32 %56, 1
  %58 = sext i32 %57 to i64
  %59 = getelementptr inbounds i32, ptr %55, i64 %58
  %60 = load i32, ptr %59, align 4, !tbaa !27
  %61 = icmp slt i32 %54, %60
  br i1 %61, label %62, label %63

62:                                               ; preds = %49
  br label %196

63:                                               ; preds = %49
  %64 = load ptr, ptr %10, align 8, !tbaa !60
  %65 = load i32, ptr %21, align 4, !tbaa !27
  %66 = sext i32 %65 to i64
  %67 = getelementptr inbounds i32, ptr %64, i64 %66
  %68 = load i32, ptr %67, align 4, !tbaa !27
  %69 = load ptr, ptr %10, align 8, !tbaa !60
  %70 = load i32, ptr %21, align 4, !tbaa !27
  %71 = sub nsw i32 %70, 1
  %72 = sext i32 %71 to i64
  %73 = getelementptr inbounds i32, ptr %69, i64 %72
  %74 = load i32, ptr %73, align 4, !tbaa !27
  %75 = icmp sgt i32 %68, %74
  br i1 %75, label %76, label %123

76:                                               ; preds = %63
  call void @llvm.lifetime.start.p0(i64 4, ptr %22) #15
  %77 = load ptr, ptr %10, align 8, !tbaa !60
  %78 = load i32, ptr %21, align 4, !tbaa !27
  %79 = sext i32 %78 to i64
  %80 = getelementptr inbounds i32, ptr %77, i64 %79
  %81 = load i32, ptr %80, align 4, !tbaa !27
  store i32 %81, ptr %22, align 4, !tbaa !27
  %82 = load ptr, ptr %10, align 8, !tbaa !60
  %83 = load i32, ptr %21, align 4, !tbaa !27
  %84 = sub nsw i32 %83, 1
  %85 = sext i32 %84 to i64
  %86 = getelementptr inbounds i32, ptr %82, i64 %85
  %87 = load i32, ptr %86, align 4, !tbaa !27
  %88 = load ptr, ptr %10, align 8, !tbaa !60
  %89 = load i32, ptr %21, align 4, !tbaa !27
  %90 = sext i32 %89 to i64
  %91 = getelementptr inbounds i32, ptr %88, i64 %90
  store i32 %87, ptr %91, align 4, !tbaa !27
  %92 = load i32, ptr %22, align 4, !tbaa !27
  %93 = load ptr, ptr %10, align 8, !tbaa !60
  %94 = load i32, ptr %21, align 4, !tbaa !27
  %95 = sub nsw i32 %94, 1
  %96 = sext i32 %95 to i64
  %97 = getelementptr inbounds i32, ptr %93, i64 %96
  store i32 %92, ptr %97, align 4, !tbaa !27
  call void @llvm.lifetime.end.p0(i64 4, ptr %22) #15
  %98 = load ptr, ptr %15, align 8, !tbaa !47
  %99 = icmp ne ptr %98, null
  br i1 %99, label %100, label %122

100:                                              ; preds = %76
  call void @llvm.lifetime.start.p0(i64 4, ptr %23) #15
  %101 = load ptr, ptr %12, align 8, !tbaa !60
  %102 = load i32, ptr %21, align 4, !tbaa !27
  %103 = sext i32 %102 to i64
  %104 = getelementptr inbounds i32, ptr %101, i64 %103
  %105 = load i32, ptr %104, align 4, !tbaa !27
  store i32 %105, ptr %23, align 4, !tbaa !27
  %106 = load ptr, ptr %12, align 8, !tbaa !60
  %107 = load i32, ptr %21, align 4, !tbaa !27
  %108 = sub nsw i32 %107, 1
  %109 = sext i32 %108 to i64
  %110 = getelementptr inbounds i32, ptr %106, i64 %109
  %111 = load i32, ptr %110, align 4, !tbaa !27
  %112 = load ptr, ptr %12, align 8, !tbaa !60
  %113 = load i32, ptr %21, align 4, !tbaa !27
  %114 = sext i32 %113 to i64
  %115 = getelementptr inbounds i32, ptr %112, i64 %114
  store i32 %111, ptr %115, align 4, !tbaa !27
  %116 = load i32, ptr %23, align 4, !tbaa !27
  %117 = load ptr, ptr %12, align 8, !tbaa !60
  %118 = load i32, ptr %21, align 4, !tbaa !27
  %119 = sub nsw i32 %118, 1
  %120 = sext i32 %119 to i64
  %121 = getelementptr inbounds i32, ptr %117, i64 %120
  store i32 %116, ptr %121, align 4, !tbaa !27
  call void @llvm.lifetime.end.p0(i64 4, ptr %23) #15
  br label %122

122:                                              ; preds = %100, %76
  br label %193

123:                                              ; preds = %63
  %124 = load i32, ptr %17, align 4, !tbaa !27
  %125 = add nsw i32 1, %124
  %126 = load ptr, ptr %10, align 8, !tbaa !60
  %127 = load i32, ptr %21, align 4, !tbaa !27
  %128 = sub nsw i32 %127, 1
  %129 = sext i32 %128 to i64
  %130 = getelementptr inbounds i32, ptr %126, i64 %129
  %131 = load i32, ptr %130, align 4, !tbaa !27
  %132 = add nsw i32 %131, %125
  store i32 %132, ptr %130, align 4, !tbaa !27
  %133 = load ptr, ptr %15, align 8, !tbaa !47
  %134 = icmp ne ptr %133, null
  br i1 %134, label %135, label %156

135:                                              ; preds = %123
  %136 = load ptr, ptr %15, align 8, !tbaa !47
  %137 = load ptr, ptr %12, align 8, !tbaa !60
  %138 = load i32, ptr %21, align 4, !tbaa !27
  %139 = sext i32 %138 to i64
  %140 = getelementptr inbounds i32, ptr %137, i64 %139
  %141 = load i32, ptr %140, align 4, !tbaa !27
  %142 = load ptr, ptr %12, align 8, !tbaa !60
  %143 = load i32, ptr %21, align 4, !tbaa !27
  %144 = sub nsw i32 %143, 1
  %145 = sext i32 %144 to i64
  %146 = getelementptr inbounds i32, ptr %142, i64 %145
  %147 = load i32, ptr %146, align 4, !tbaa !27
  %148 = load i32, ptr %16, align 4, !tbaa !27
  %149 = load i32, ptr %18, align 4, !tbaa !27
  %150 = call i32 @If_LogCreateAndXor(ptr noundef %136, i32 noundef %141, i32 noundef %147, i32 noundef %148, i32 noundef %149)
  %151 = load ptr, ptr %12, align 8, !tbaa !60
  %152 = load i32, ptr %21, align 4, !tbaa !27
  %153 = sub nsw i32 %152, 1
  %154 = sext i32 %153 to i64
  %155 = getelementptr inbounds i32, ptr %151, i64 %154
  store i32 %150, ptr %155, align 4, !tbaa !27
  br label %156

156:                                              ; preds = %135, %123
  %157 = load i32, ptr %19, align 4, !tbaa !27
  %158 = add nsw i32 %157, -1
  store i32 %158, ptr %19, align 4, !tbaa !27
  %159 = load i32, ptr %21, align 4, !tbaa !27
  store i32 %159, ptr %20, align 4, !tbaa !27
  br label %160

160:                                              ; preds = %189, %156
  %161 = load i32, ptr %20, align 4, !tbaa !27
  %162 = load i32, ptr %19, align 4, !tbaa !27
  %163 = icmp slt i32 %161, %162
  br i1 %163, label %164, label %192

164:                                              ; preds = %160
  %165 = load ptr, ptr %10, align 8, !tbaa !60
  %166 = load i32, ptr %20, align 4, !tbaa !27
  %167 = add nsw i32 %166, 1
  %168 = sext i32 %167 to i64
  %169 = getelementptr inbounds i32, ptr %165, i64 %168
  %170 = load i32, ptr %169, align 4, !tbaa !27
  %171 = load ptr, ptr %10, align 8, !tbaa !60
  %172 = load i32, ptr %20, align 4, !tbaa !27
  %173 = sext i32 %172 to i64
  %174 = getelementptr inbounds i32, ptr %171, i64 %173
  store i32 %170, ptr %174, align 4, !tbaa !27
  %175 = load ptr, ptr %15, align 8, !tbaa !47
  %176 = icmp ne ptr %175, null
  br i1 %176, label %177, label %188

177:                                              ; preds = %164
  %178 = load ptr, ptr %12, align 8, !tbaa !60
  %179 = load i32, ptr %20, align 4, !tbaa !27
  %180 = add nsw i32 %179, 1
  %181 = sext i32 %180 to i64
  %182 = getelementptr inbounds i32, ptr %178, i64 %181
  %183 = load i32, ptr %182, align 4, !tbaa !27
  %184 = load ptr, ptr %12, align 8, !tbaa !60
  %185 = load i32, ptr %20, align 4, !tbaa !27
  %186 = sext i32 %185 to i64
  %187 = getelementptr inbounds i32, ptr %184, i64 %186
  store i32 %183, ptr %187, align 4, !tbaa !27
  br label %188

188:                                              ; preds = %177, %164
  br label %189

189:                                              ; preds = %188
  %190 = load i32, ptr %20, align 4, !tbaa !27
  %191 = add nsw i32 %190, 1
  store i32 %191, ptr %20, align 4, !tbaa !27
  br label %160, !llvm.loop !284

192:                                              ; preds = %160
  br label %193

193:                                              ; preds = %192, %122
  %194 = load i32, ptr %21, align 4, !tbaa !27
  %195 = add nsw i32 %194, -1
  store i32 %195, ptr %21, align 4, !tbaa !27
  br label %46, !llvm.loop !285

196:                                              ; preds = %62, %46
  call void @llvm.lifetime.end.p0(i64 4, ptr %21) #15
  call void @llvm.lifetime.end.p0(i64 4, ptr %20) #15
  br label %197

197:                                              ; preds = %196, %34
  %198 = load i32, ptr %19, align 4, !tbaa !27
  %199 = load ptr, ptr %11, align 8, !tbaa !60
  store i32 %198, ptr %199, align 4, !tbaa !27
  %200 = load ptr, ptr %10, align 8, !tbaa !60
  %201 = getelementptr inbounds i32, ptr %200, i64 0
  %202 = load i32, ptr %201, align 4, !tbaa !27
  %203 = load i32, ptr %19, align 4, !tbaa !27
  %204 = icmp sgt i32 %203, 1
  br i1 %204, label %205, label %208

205:                                              ; preds = %197
  %206 = load i32, ptr %17, align 4, !tbaa !27
  %207 = add nsw i32 1, %206
  br label %209

208:                                              ; preds = %197
  br label %209

209:                                              ; preds = %208, %205
  %210 = phi i32 [ %207, %205 ], [ 0, %208 ]
  %211 = add nsw i32 %202, %210
  call void @llvm.lifetime.end.p0(i64 4, ptr %19) #15
  ret i32 %211
}