; Function Attrs: inlinehint nounwind uwtable
define internal fastcc i32 @If_LogCounterAddAig(ptr noundef nonnull captures(none) %0, ptr noundef nonnull captures(none) %1, ptr noundef nonnull captures(none) %2, i32 noundef range(i32 0, -1) %3, i32 noundef %4, ptr noundef %5, i32 noundef %6, i32 noundef range(i32 0, 2) %7) unnamed_addr #26 {
  %9 = load i32, ptr %1, align 4, !tbaa !40
  %.not = icmp eq ptr %5, null
  %.pre = sext i32 %9 to i64
  br i1 %.not, label %._crit_edge, label %10

10:                                               ; preds = %8
  %11 = getelementptr inbounds i32, ptr %2, i64 %.pre
  store i32 %4, ptr %11, align 4, !tbaa !40
  br label %._crit_edge

._crit_edge:                                      ; preds = %8, %10
  %12 = add nsw i32 %9, 1
  %13 = getelementptr inbounds i32, ptr %0, i64 %.pre
  store i32 %3, ptr %13, align 4, !tbaa !40
  %14 = icmp sgt i32 %9, 0
  br i1 %14, label %.preheader, label %.loopexit78

.preheader:                                       ; preds = %._crit_edge
  %.not.i = icmp eq i32 %7, 0
  br label %15

15:                                               ; preds = %.preheader, %.loopexit
  %.181 = phi i32 [ %12, %.preheader ], [ %.2, %.loopexit ]
  %.07180 = phi i32 [ %9, %.preheader ], [ %19, %.loopexit ]
  %16 = zext nneg i32 %.07180 to i64
  %17 = getelementptr inbounds nuw i32, ptr %0, i64 %16
  %18 = load i32, ptr %17, align 4, !tbaa !40
  %19 = add nsw i32 %.07180, -1
  %20 = zext nneg i32 %19 to i64
  %21 = getelementptr inbounds nuw i32, ptr %0, i64 %20
  %22 = load i32, ptr %21, align 4, !tbaa !40
  %23 = icmp slt i32 %18, %22
  br i1 %23, label %.loopexit78, label %24

24:                                               ; preds = %15
  %25 = icmp sgt i32 %18, %22
  br i1 %25, label %26, label %32

26:                                               ; preds = %24
  store i32 %22, ptr %17, align 4, !tbaa !40
  store i32 %18, ptr %21, align 4, !tbaa !40
  br i1 %.not, label %.loopexit, label %27

27:                                               ; preds = %26
  %28 = getelementptr inbounds nuw i32, ptr %2, i64 %16
  %29 = load i32, ptr %28, align 4, !tbaa !40
  %30 = getelementptr inbounds nuw i32, ptr %2, i64 %20
  %31 = load i32, ptr %30, align 4, !tbaa !40
  store i32 %31, ptr %28, align 4, !tbaa !40
  store i32 %29, ptr %30, align 4, !tbaa !40
  br label %.loopexit

32:                                               ; preds = %24
  %33 = add nsw i32 %22, 1
  store i32 %33, ptr %21, align 4, !tbaa !40
  br i1 %.not, label %50, label %34

34:                                               ; preds = %32
  %35 = getelementptr inbounds nuw i32, ptr %2, i64 %16
  %36 = load i32, ptr %35, align 4, !tbaa !40
  %37 = getelementptr inbounds nuw i32, ptr %2, i64 %20
  %38 = load i32, ptr %37, align 4, !tbaa !40
  br i1 %.not.i, label %48, label %39

39:                                               ; preds = %34
  %40 = xor i32 %38, 1
  %41 = tail call fastcc i32 @If_LogCreateAnd(ptr noundef nonnull %5, i32 noundef %36, i32 noundef %40, i32 noundef %6)
  %42 = xor i32 %36, 1
  %43 = tail call fastcc i32 @If_LogCreateAnd(ptr noundef nonnull %5, i32 noundef %42, i32 noundef %38, i32 noundef %6)
  %44 = xor i32 %41, 1
  %45 = xor i32 %43, 1
  %46 = tail call fastcc i32 @If_LogCreateAnd(ptr noundef nonnull %5, i32 noundef %44, i32 noundef %45, i32 noundef %6)
  %47 = xor i32 %46, 1
  br label %.thread

48:                                               ; preds = %34
  %49 = tail call fastcc i32 @If_LogCreateAnd(ptr noundef nonnull %5, i32 noundef %36, i32 noundef %38, i32 noundef %6)
  br label %.thread

50:                                               ; preds = %32
  %51 = add nsw i32 %.181, -1
  %52 = icmp slt i32 %.07180, %51
  br i1 %52, label %.lr.ph.split.us, label %.loopexit

.thread:                                          ; preds = %48, %39
  %53 = phi i32 [ %47, %39 ], [ %49, %48 ]
  store i32 %53, ptr %37, align 4, !tbaa !40
  %54 = add nsw i32 %.181, -1
  %55 = icmp slt i32 %.07180, %54
  br i1 %55, label %.lr.ph.split, label %.loopexit

.lr.ph.split.us:                                  ; preds = %50, %.lr.ph.split.us
  %indvars.iv85 = phi i64 [ %indvars.iv.next86, %.lr.ph.split.us ], [ %16, %50 ]
  %indvars.iv.next86 = add nuw nsw i64 %indvars.iv85, 1
  %56 = getelementptr inbounds nuw i32, ptr %0, i64 %indvars.iv.next86
  %57 = load i32, ptr %56, align 4, !tbaa !40
  %58 = getelementptr inbounds nuw i32, ptr %0, i64 %indvars.iv85
  store i32 %57, ptr %58, align 4, !tbaa !40
  %59 = trunc nuw i64 %indvars.iv.next86 to i32
  %60 = icmp sgt i32 %51, %59
  br i1 %60, label %.lr.ph.split.us, label %.loopexit, !llvm.loop !268

.lr.ph.split:                                     ; preds = %.thread, %.lr.ph.split
  %indvars.iv = phi i64 [ %indvars.iv.next, %.lr.ph.split ], [ %16, %.thread ]
  %indvars.iv.next = add nuw nsw i64 %indvars.iv, 1
  %61 = getelementptr inbounds nuw i32, ptr %0, i64 %indvars.iv.next
  %62 = load i32, ptr %61, align 4, !tbaa !40
  %63 = getelementptr inbounds nuw i32, ptr %0, i64 %indvars.iv
  store i32 %62, ptr %63, align 4, !tbaa !40
  %64 = getelementptr inbounds nuw i32, ptr %2, i64 %indvars.iv.next
  %65 = load i32, ptr %64, align 4, !tbaa !40
  %66 = getelementptr inbounds nuw i32, ptr %2, i64 %indvars.iv
  store i32 %65, ptr %66, align 4, !tbaa !40
  %67 = trunc nuw i64 %indvars.iv.next to i32
  %68 = icmp sgt i32 %54, %67
  br i1 %68, label %.lr.ph.split, label %.loopexit, !llvm.loop !268

.loopexit:                                        ; preds = %.lr.ph.split, %.lr.ph.split.us, %.thread, %50, %26, %27
  %.2 = phi i32 [ %.181, %27 ], [ %.181, %26 ], [ %51, %50 ], [ %54, %.thread ], [ %51, %.lr.ph.split.us ], [ %54, %.lr.ph.split ]
  %69 = icmp sgt i32 %.07180, 1
  br i1 %69, label %15, label %.loopexit78, !llvm.loop !269

.loopexit78:                                      ; preds = %.loopexit, %15, %._crit_edge
  %.0 = phi i32 [ %12, %._crit_edge ], [ %.181, %15 ], [ %.2, %.loopexit ]
  store i32 %.0, ptr %1, align 4, !tbaa !40
  %70 = load i32, ptr %0, align 4, !tbaa !40
  %71 = icmp sgt i32 %.0, 1
  %72 = zext i1 %71 to i32
  %73 = add nsw i32 %70, %72
  ret i32 %73
}